; Listing generated by Microsoft (R) Optimizing Compiler Version 19.13.26129.0 

include listing.inc

INCLUDELIB OLDNAMES

PUBLIC	??_C@_0BB@JAJPAAIO@VERSION?5RELEASE?6?$AA@	; `string'
PUBLIC	??_C@_0BC@LENDINEP@Input?3?5N?0?5ntimes?6?$AA@	; `string'
PUBLIC	??_C@_0L@KKAOAIMC@?5ntimes?5?$DN?5?$AA@		; `string'
PUBLIC	??_C@_04MHBLBDJF@N?5?$DN?5?$AA@			; `string'
PUBLIC	??_C@_0BJ@OGCHFJAK@Memory?5allocation?5error?6?$AA@ ; `string'
PUBLIC	??_C@_05JJKMFMED@?5msek?$AA@			; `string'
PUBLIC	??_C@_0CN@LCJCILGN@classical?5access?3?5?5?5?5?5?5?5?5?5?5?5?5?5?5?5@ ; `string'
PUBLIC	??_C@_0CN@MPGMCADC@SSE2?3?5x4?5?5prefetch?5x?58?5?5?5?$CBpipeli@ ; `string'
PUBLIC	??_C@_09ONHBKHAJ@?5?5dot1?5?$DN?5?$AA@		; `string'
PUBLIC	??_C@_0O@BJHCLIGI@Error?3?5dot?5?$DN?5?$AA@	; `string'
PUBLIC	??_C@_0CN@KKALBLHE@SSE2?3?5x4?5?5prefetch?5x?58?5?5?5?5pipeli@ ; `string'
PUBLIC	??_C@_05PDJBBECF@pause?$AA@			; `string'
PUBLIC	_CTA1H
PUBLIC	_CT??_R0H@84
PUBLIC	??_R0H@8					; int `RTTI Type Descriptor'
PUBLIC	_TI1H
EXTRN	__imp_?rdstate@ios_base@std@@QEBAHXZ:PROC
EXTRN	__imp_?good@ios_base@std@@QEBA_NXZ:PROC
EXTRN	__imp_?flags@ios_base@std@@QEBAHXZ:PROC
EXTRN	__imp_?width@ios_base@std@@QEBA_JXZ:PROC
EXTRN	__imp_?width@ios_base@std@@QEAA_J_J@Z:PROC
EXTRN	__imp_??6?$basic_ostream@DU?$char_traits@D@std@@@std@@QEAAAEAV01@N@Z:PROC
EXTRN	__imp_??6?$basic_ostream@DU?$char_traits@D@std@@@std@@QEAAAEAV01@H@Z:PROC
EXTRN	__imp_??6?$basic_ostream@DU?$char_traits@D@std@@@std@@QEAAAEAV01@P6AAEAV01@AEAV01@@Z@Z:PROC
EXTRN	__imp_??5?$basic_istream@DU?$char_traits@D@std@@@std@@QEAAAEAV01@AEAH@Z:PROC
EXTRN	__imp_?fill@?$basic_ios@DU?$char_traits@D@std@@@std@@QEBADXZ:PROC
EXTRN	__imp_?rdbuf@?$basic_ios@DU?$char_traits@D@std@@@std@@QEBAPEAV?$basic_streambuf@DU?$char_traits@D@std@@@2@XZ:PROC
EXTRN	__imp_?setstate@?$basic_ios@DU?$char_traits@D@std@@@std@@QEAAXH_N@Z:PROC
EXTRN	__imp_?flush@?$basic_ostream@DU?$char_traits@D@std@@@std@@QEAAAEAV12@XZ:PROC
EXTRN	__imp_?_Osfx@?$basic_ostream@DU?$char_traits@D@std@@@std@@QEAAXXZ:PROC
EXTRN	__imp_?tie@?$basic_ios@DU?$char_traits@D@std@@@std@@QEBAPEAV?$basic_ostream@DU?$char_traits@D@std@@@2@XZ:PROC
EXTRN	__imp_?sputc@?$basic_streambuf@DU?$char_traits@D@std@@@std@@QEAAHD@Z:PROC
EXTRN	__imp_?put@?$basic_ostream@DU?$char_traits@D@std@@@std@@QEAAAEAV12@D@Z:PROC
EXTRN	__imp_?sputn@?$basic_streambuf@DU?$char_traits@D@std@@@std@@QEAA_JPEBD_J@Z:PROC
EXTRN	__imp_?widen@?$basic_ios@DU?$char_traits@D@std@@@std@@QEBADD@Z:PROC
EXTRN	__imp_?uncaught_exceptions@std@@YAHXZ:PROC
EXTRN	__imp_system:PROC
EXTRN	__imp__aligned_free:PROC
EXTRN	__imp_GetTickCount:PROC
EXTRN	__imp_exit:PROC
EXTRN	__imp__aligned_malloc:PROC
EXTRN	__imp_?cin@std@@3V?$basic_istream@DU?$char_traits@D@std@@@1@A:BYTE
EXTRN	__imp_?cout@std@@3V?$basic_ostream@DU?$char_traits@D@std@@@1@A:BYTE
EXTRN	??_7type_info@@6B@:BYTE				; type_info::`vftable'
EXTRN	__imp___std_terminate:PROC
EXTRN	__security_check_cookie:PROC
EXTRN	__imp___CxxFrameHandler3:PROC
;	COMDAT _TI1H
xdata$x	SEGMENT
_TI1H	DD	00H
	DD	00H
	DD	00H
	DD	imagerel _CTA1H
xdata$x	ENDS
;	COMDAT ??_R0H@8
data$r	SEGMENT
??_R0H@8 DQ	FLAT:??_7type_info@@6B@			; int `RTTI Type Descriptor'
	DQ	0000000000000000H
	DB	'.H', 00H
data$r	ENDS
;	COMDAT _CT??_R0H@84
xdata$x	SEGMENT
_CT??_R0H@84 DD	01H
	DD	imagerel ??_R0H@8
	DD	00H
	DD	0ffffffffH
	ORG $+4
	DD	04H
	DD	00H
xdata$x	ENDS
;	COMDAT _CTA1H
xdata$x	SEGMENT
_CTA1H	DD	01H
	DD	imagerel _CT??_R0H@84
xdata$x	ENDS
;	COMDAT ??_C@_05PDJBBECF@pause?$AA@
CONST	SEGMENT
??_C@_05PDJBBECF@pause?$AA@ DB 'pause', 00H		; `string'
CONST	ENDS
;	COMDAT ??_C@_0CN@KKALBLHE@SSE2?3?5x4?5?5prefetch?5x?58?5?5?5?5pipeli@
CONST	SEGMENT
??_C@_0CN@KKALBLHE@SSE2?3?5x4?5?5prefetch?5x?58?5?5?5?5pipeli@ DB 'SSE2: '
	DB	'x4  prefetch x 8    pipelines         ', 00H ; `string'
CONST	ENDS
;	COMDAT ??_C@_0O@BJHCLIGI@Error?3?5dot?5?$DN?5?$AA@
CONST	SEGMENT
??_C@_0O@BJHCLIGI@Error?3?5dot?5?$DN?5?$AA@ DB 'Error: dot = ', 00H ; `string'
CONST	ENDS
;	COMDAT ??_C@_09ONHBKHAJ@?5?5dot1?5?$DN?5?$AA@
CONST	SEGMENT
??_C@_09ONHBKHAJ@?5?5dot1?5?$DN?5?$AA@ DB '  dot1 = ', 00H ; `string'
CONST	ENDS
;	COMDAT ??_C@_0CN@MPGMCADC@SSE2?3?5x4?5?5prefetch?5x?58?5?5?5?$CBpipeli@
CONST	SEGMENT
??_C@_0CN@MPGMCADC@SSE2?3?5x4?5?5prefetch?5x?58?5?5?5?$CBpipeli@ DB 'SSE2'
	DB	': x4  prefetch x 8   !pipelines         ', 00H ; `string'
CONST	ENDS
;	COMDAT ??_C@_0CN@LCJCILGN@classical?5access?3?5?5?5?5?5?5?5?5?5?5?5?5?5?5?5@
CONST	SEGMENT
??_C@_0CN@LCJCILGN@classical?5access?3?5?5?5?5?5?5?5?5?5?5?5?5?5?5?5@ DB 'c'
	DB	'lassical access:                           ', 00H ; `string'
CONST	ENDS
;	COMDAT ??_C@_05JJKMFMED@?5msek?$AA@
CONST	SEGMENT
??_C@_05JJKMFMED@?5msek?$AA@ DB ' msek', 00H		; `string'
CONST	ENDS
;	COMDAT ??_C@_0BJ@OGCHFJAK@Memory?5allocation?5error?6?$AA@
CONST	SEGMENT
??_C@_0BJ@OGCHFJAK@Memory?5allocation?5error?6?$AA@ DB 'Memory allocation'
	DB	' error', 0aH, 00H				; `string'
CONST	ENDS
;	COMDAT ??_C@_04MHBLBDJF@N?5?$DN?5?$AA@
CONST	SEGMENT
??_C@_04MHBLBDJF@N?5?$DN?5?$AA@ DB 'N = ', 00H		; `string'
CONST	ENDS
;	COMDAT ??_C@_0L@KKAOAIMC@?5ntimes?5?$DN?5?$AA@
CONST	SEGMENT
??_C@_0L@KKAOAIMC@?5ntimes?5?$DN?5?$AA@ DB ' ntimes = ', 00H ; `string'
CONST	ENDS
;	COMDAT ??_C@_0BC@LENDINEP@Input?3?5N?0?5ntimes?6?$AA@
CONST	SEGMENT
??_C@_0BC@LENDINEP@Input?3?5N?0?5ntimes?6?$AA@ DB 'Input: N, ntimes', 0aH
	DB	00H						; `string'
CONST	ENDS
;	COMDAT ??_C@_0BB@JAJPAAIO@VERSION?5RELEASE?6?$AA@
CONST	SEGMENT
??_C@_0BB@JAJPAAIO@VERSION?5RELEASE?6?$AA@ DB 'VERSION RELEASE', 0aH, 00H ; `string'
CONST	ENDS
PUBLIC	??$endl@DU?$char_traits@D@std@@@std@@YAAEAV?$basic_ostream@DU?$char_traits@D@std@@@0@AEAV10@@Z ; std::endl<char,std::char_traits<char> >
PUBLIC	??$?6U?$char_traits@D@std@@@std@@YAAEAV?$basic_ostream@DU?$char_traits@D@std@@@0@AEAV10@PEBD@Z ; std::operator<<<std::char_traits<char> >
PUBLIC	??0_Sentry_base@?$basic_ostream@DU?$char_traits@D@std@@@std@@QEAA@AEAV12@@Z ; std::basic_ostream<char,std::char_traits<char> >::_Sentry_base::_Sentry_base
PUBLIC	??1_Sentry_base@?$basic_ostream@DU?$char_traits@D@std@@@std@@QEAA@XZ ; std::basic_ostream<char,std::char_traits<char> >::_Sentry_base::~_Sentry_base
PUBLIC	??0sentry@?$basic_ostream@DU?$char_traits@D@std@@@std@@QEAA@AEAV12@@Z ; std::basic_ostream<char,std::char_traits<char> >::sentry::sentry
PUBLIC	??1sentry@?$basic_ostream@DU?$char_traits@D@std@@@std@@QEAA@XZ ; std::basic_ostream<char,std::char_traits<char> >::sentry::~sentry
PUBLIC	??Bsentry@?$basic_ostream@DU?$char_traits@D@std@@@std@@QEBA_NXZ ; std::basic_ostream<char,std::char_traits<char> >::sentry::operator bool
PUBLIC	wmain
PUBLIC	?eof@?$char_traits@D@std@@SAHXZ			; std::char_traits<char>::eof
PUBLIC	?eq_int_type@?$char_traits@D@std@@SA_NAEBH0@Z	; std::char_traits<char>::eq_int_type
PUBLIC	?length@?$char_traits@D@std@@SA_KQEBD@Z		; std::char_traits<char>::length
PUBLIC	__real@3c9cd2b297d889bc
EXTRN	_CxxThrowException:PROC
EXTRN	__CxxFrameHandler3:PROC
EXTRN	__GSHandlerCheck_EH:PROC
EXTRN	__std_terminate:PROC
EXTRN	sqrt:PROC
EXTRN	__security_cookie:QWORD
EXTRN	_fltused:DWORD
;	COMDAT pdata
pdata	SEGMENT
$pdata$??$endl@DU?$char_traits@D@std@@@std@@YAAEAV?$basic_ostream@DU?$char_traits@D@std@@@0@AEAV10@@Z DD imagerel $LN4
	DD	imagerel $LN4+57
	DD	imagerel $unwind$??$endl@DU?$char_traits@D@std@@@std@@YAAEAV?$basic_ostream@DU?$char_traits@D@std@@@0@AEAV10@@Z
pdata	ENDS
;	COMDAT pdata
pdata	SEGMENT
$pdata$??$?6U?$char_traits@D@std@@@std@@YAAEAV?$basic_ostream@DU?$char_traits@D@std@@@0@AEAV10@PEBD@Z DD imagerel $LN109
	DD	imagerel $LN109+464
	DD	imagerel $unwind$??$?6U?$char_traits@D@std@@@std@@YAAEAV?$basic_ostream@DU?$char_traits@D@std@@@0@AEAV10@PEBD@Z
pdata	ENDS
;	COMDAT pdata
pdata	SEGMENT
$pdata$?catch$4@?0???$?6U?$char_traits@D@std@@@std@@YAAEAV?$basic_ostream@DU?$char_traits@D@std@@@0@AEAV10@PEBD@Z@4HA DD imagerel ?catch$4@?0???$?6U?$char_traits@D@std@@@std@@YAAEAV?$basic_ostream@DU?$char_traits@D@std@@@0@AEAV10@PEBD@Z@4HA
	DD	imagerel ?catch$4@?0???$?6U?$char_traits@D@std@@@std@@YAAEAV?$basic_ostream@DU?$char_traits@D@std@@@0@AEAV10@PEBD@Z@4HA+56
	DD	imagerel $unwind$?catch$4@?0???$?6U?$char_traits@D@std@@@std@@YAAEAV?$basic_ostream@DU?$char_traits@D@std@@@0@AEAV10@PEBD@Z@4HA
pdata	ENDS
;	COMDAT pdata
pdata	SEGMENT
$pdata$??0_Sentry_base@?$basic_ostream@DU?$char_traits@D@std@@@std@@QEAA@AEAV12@@Z DD imagerel $LN10
	DD	imagerel $LN10+44
	DD	imagerel $unwind$??0_Sentry_base@?$basic_ostream@DU?$char_traits@D@std@@@std@@QEAA@AEAV12@@Z
pdata	ENDS
;	COMDAT pdata
pdata	SEGMENT
$pdata$??1_Sentry_base@?$basic_ostream@DU?$char_traits@D@std@@@std@@QEAA@XZ DD imagerel $LN9
	DD	imagerel $LN9+45
	DD	imagerel $unwind$??1_Sentry_base@?$basic_ostream@DU?$char_traits@D@std@@@std@@QEAA@XZ
pdata	ENDS
;	COMDAT pdata
pdata	SEGMENT
$pdata$??0sentry@?$basic_ostream@DU?$char_traits@D@std@@@std@@QEAA@AEAV12@@Z DD imagerel $LN27
	DD	imagerel $LN27+126
	DD	imagerel $unwind$??0sentry@?$basic_ostream@DU?$char_traits@D@std@@@std@@QEAA@AEAV12@@Z
pdata	ENDS
;	COMDAT pdata
pdata	SEGMENT
$pdata$??1sentry@?$basic_ostream@DU?$char_traits@D@std@@@std@@QEAA@XZ DD imagerel $LN14
	DD	imagerel $LN14+72
	DD	imagerel $unwind$??1sentry@?$basic_ostream@DU?$char_traits@D@std@@@std@@QEAA@XZ
pdata	ENDS
;	COMDAT pdata
pdata	SEGMENT
$pdata$wmain DD	imagerel $LN68
	DD	imagerel $LN68+1234
	DD	imagerel $unwind$wmain
pdata	ENDS
;	COMDAT pdata
pdata	SEGMENT
$pdata$wmain$catch$0 DD imagerel wmain$catch$0
	DD	imagerel wmain$catch$0+44
	DD	imagerel $unwind$wmain$catch$0
pdata	ENDS
;	COMDAT __real@3c9cd2b297d889bc
CONST	SEGMENT
__real@3c9cd2b297d889bc DQ 03c9cd2b297d889bcr	; 1e-16
CONST	ENDS
;	COMDAT xdata
xdata	SEGMENT
$unwind$wmain$catch$0 DD 020a19H
	DD	05006320aH
	DD	imagerel __CxxFrameHandler3
	DD	imagerel $cppxdata$wmain
xdata	ENDS
;	COMDAT xdata
xdata	SEGMENT
$ip2state$wmain DD imagerel wmain+74
	DD	0ffffffffH
	DD	imagerel wmain+229
	DD	00H
	DD	imagerel wmain+298
	DD	0ffffffffH
	DD	imagerel wmain+1207
	DD	00H
	DD	imagerel wmain+1233
	DD	0ffffffffH
	DD	imagerel wmain$catch$0+27
	DD	01H
xdata	ENDS
;	COMDAT xdata
xdata	SEGMENT
$handlerMap$0$wmain DD 00H
	DD	imagerel ??_R0H@8
	DD	00H
	DD	imagerel wmain$catch$0
	DD	038H
xdata	ENDS
;	COMDAT xdata
xdata	SEGMENT
$tryMap$wmain DD 00H
	DD	00H
	DD	01H
	DD	01H
	DD	imagerel $handlerMap$0$wmain
xdata	ENDS
;	COMDAT xdata
xdata	SEGMENT
$stateUnwindMap$wmain DD 0ffffffffH
	DD	00H
	DD	0ffffffffH
	DD	00H
xdata	ENDS
;	COMDAT CONST
CONST	SEGMENT
$cppxdata$wmain DD 019930522H
	DD	02H
	DD	imagerel $stateUnwindMap$wmain
	DD	01H
	DD	imagerel $tryMap$wmain
	DD	06H
	DD	imagerel $ip2state$wmain
	DD	028H
	DD	00H
	DD	01H
CONST	ENDS
;	COMDAT xdata
xdata	SEGMENT
$unwind$wmain DD 0f3c19H
	DD	05982dH
	DD	068828H
	DD	077823H
	DD	08681fH
	DD	015641bH
	DD	0143417H
	DD	012010bH
	DD	07004H
	DD	imagerel __GSHandlerCheck_EH
	DD	imagerel $cppxdata$wmain
	DD	043H
xdata	ENDS
;	COMDAT xdata
xdata	SEGMENT
$ip2state$??1sentry@?$basic_ostream@DU?$char_traits@D@std@@@std@@QEAA@XZ DD imagerel ??1sentry@?$basic_ostream@DU?$char_traits@D@std@@@std@@QEAA@XZ+32
	DD	0ffffffffH
	DD	imagerel ??1sentry@?$basic_ostream@DU?$char_traits@D@std@@@std@@QEAA@XZ+62
	DD	00H
xdata	ENDS
;	COMDAT xdata
xdata	SEGMENT
$stateUnwindMap$??1sentry@?$basic_ostream@DU?$char_traits@D@std@@@std@@QEAA@XZ DD 0ffffffffH
	DD	imagerel __imp___std_terminate
xdata	ENDS
;	COMDAT CONST
CONST	SEGMENT
$cppxdata$??1sentry@?$basic_ostream@DU?$char_traits@D@std@@@std@@QEAA@XZ DD 019930522H
	DD	01H
	DD	imagerel $stateUnwindMap$??1sentry@?$basic_ostream@DU?$char_traits@D@std@@@std@@QEAA@XZ
	DD	00H
	DD	00H
	DD	02H
	DD	imagerel $ip2state$??1sentry@?$basic_ostream@DU?$char_traits@D@std@@@std@@QEAA@XZ
	DD	020H
	DD	00H
	DD	05H
CONST	ENDS
;	COMDAT xdata
xdata	SEGMENT
$unwind$??1sentry@?$basic_ostream@DU?$char_traits@D@std@@@std@@QEAA@XZ DD 020f19H
	DD	030025206H
	DD	imagerel __CxxFrameHandler3
	DD	imagerel $cppxdata$??1sentry@?$basic_ostream@DU?$char_traits@D@std@@@std@@QEAA@XZ
xdata	ENDS
;	COMDAT xdata
xdata	SEGMENT
$ip2state$??0sentry@?$basic_ostream@DU?$char_traits@D@std@@@std@@QEAA@AEAV12@@Z DD imagerel ??0sentry@?$basic_ostream@DU?$char_traits@D@std@@@std@@QEAA@AEAV12@@Z+53
	DD	0ffffffffH
	DD	imagerel ??0sentry@?$basic_ostream@DU?$char_traits@D@std@@@std@@QEAA@AEAV12@@Z+88
	DD	00H
xdata	ENDS
;	COMDAT xdata
xdata	SEGMENT
$stateUnwindMap$??0sentry@?$basic_ostream@DU?$char_traits@D@std@@@std@@QEAA@AEAV12@@Z DD 0ffffffffH
	DD	imagerel ?dtor$0@?0???0sentry@?$basic_ostream@DU?$char_traits@D@std@@@std@@QEAA@AEAV12@@Z@4HA
xdata	ENDS
;	COMDAT CONST
CONST	SEGMENT
$cppxdata$??0sentry@?$basic_ostream@DU?$char_traits@D@std@@@std@@QEAA@AEAV12@@Z DD 019930522H
	DD	01H
	DD	imagerel $stateUnwindMap$??0sentry@?$basic_ostream@DU?$char_traits@D@std@@@std@@QEAA@AEAV12@@Z
	DD	00H
	DD	00H
	DD	02H
	DD	imagerel $ip2state$??0sentry@?$basic_ostream@DU?$char_traits@D@std@@@std@@QEAA@AEAV12@@Z
	DD	020H
	DD	00H
	DD	01H
CONST	ENDS
;	COMDAT xdata
xdata	SEGMENT
$unwind$??0sentry@?$basic_ostream@DU?$char_traits@D@std@@@std@@QEAA@AEAV12@@Z DD 041811H
	DD	093418H
	DD	07006520aH
	DD	imagerel __CxxFrameHandler3
	DD	imagerel $cppxdata$??0sentry@?$basic_ostream@DU?$char_traits@D@std@@@std@@QEAA@AEAV12@@Z
xdata	ENDS
;	COMDAT xdata
xdata	SEGMENT
$ip2state$??1_Sentry_base@?$basic_ostream@DU?$char_traits@D@std@@@std@@QEAA@XZ DD imagerel ??1_Sentry_base@?$basic_ostream@DU?$char_traits@D@std@@@std@@QEAA@XZ+36
	DD	0ffffffffH
xdata	ENDS
;	COMDAT CONST
CONST	SEGMENT
$cppxdata$??1_Sentry_base@?$basic_ostream@DU?$char_traits@D@std@@@std@@QEAA@XZ DD 019930522H
	DD	00H
	DD	00H
	DD	00H
	DD	00H
	DD	01H
	DD	imagerel $ip2state$??1_Sentry_base@?$basic_ostream@DU?$char_traits@D@std@@@std@@QEAA@XZ
	DD	020H
	DD	00H
	DD	05H
CONST	ENDS
;	COMDAT xdata
xdata	SEGMENT
$unwind$??1_Sentry_base@?$basic_ostream@DU?$char_traits@D@std@@@std@@QEAA@XZ DD 010d19H
	DD	06204H
	DD	imagerel __CxxFrameHandler3
	DD	imagerel $cppxdata$??1_Sentry_base@?$basic_ostream@DU?$char_traits@D@std@@@std@@QEAA@XZ
xdata	ENDS
;	COMDAT xdata
xdata	SEGMENT
$unwind$??0_Sentry_base@?$basic_ostream@DU?$char_traits@D@std@@@std@@QEAA@AEAV12@@Z DD 020601H
	DD	030023206H
xdata	ENDS
;	COMDAT xdata
xdata	SEGMENT
$unwind$?catch$4@?0???$?6U?$char_traits@D@std@@@std@@YAAEAV?$basic_ostream@DU?$char_traits@D@std@@@0@AEAV10@PEBD@Z@4HA DD 020a19H
	DD	05006320aH
	DD	imagerel __CxxFrameHandler3
	DD	imagerel $cppxdata$??$?6U?$char_traits@D@std@@@std@@YAAEAV?$basic_ostream@DU?$char_traits@D@std@@@0@AEAV10@PEBD@Z
xdata	ENDS
;	COMDAT xdata
xdata	SEGMENT
$ip2state$??$?6U?$char_traits@D@std@@@std@@YAAEAV?$basic_ostream@DU?$char_traits@D@std@@@0@AEAV10@PEBD@Z DD imagerel ??$?6U?$char_traits@D@std@@@std@@YAAEAV?$basic_ostream@DU?$char_traits@D@std@@@0@AEAV10@PEBD@Z+118
	DD	0ffffffffH
	DD	imagerel ??$?6U?$char_traits@D@std@@@std@@YAAEAV?$basic_ostream@DU?$char_traits@D@std@@@0@AEAV10@PEBD@Z+163
	DD	00H
	DD	imagerel ??$?6U?$char_traits@D@std@@@std@@YAAEAV?$basic_ostream@DU?$char_traits@D@std@@@0@AEAV10@PEBD@Z+246
	DD	02H
	DD	imagerel ??$?6U?$char_traits@D@std@@@std@@YAAEAV?$basic_ostream@DU?$char_traits@D@std@@@0@AEAV10@PEBD@Z+357
	DD	01H
	DD	imagerel ??$?6U?$char_traits@D@std@@@std@@YAAEAV?$basic_ostream@DU?$char_traits@D@std@@@0@AEAV10@PEBD@Z+398
	DD	04H
	DD	imagerel ??$?6U?$char_traits@D@std@@@std@@YAAEAV?$basic_ostream@DU?$char_traits@D@std@@@0@AEAV10@PEBD@Z+418
	DD	05H
	DD	imagerel ??$?6U?$char_traits@D@std@@@std@@YAAEAV?$basic_ostream@DU?$char_traits@D@std@@@0@AEAV10@PEBD@Z+443
	DD	0ffffffffH
	DD	imagerel ?catch$4@?0???$?6U?$char_traits@D@std@@@std@@YAAEAV?$basic_ostream@DU?$char_traits@D@std@@@0@AEAV10@PEBD@Z@4HA+35
	DD	03H
xdata	ENDS
;	COMDAT xdata
xdata	SEGMENT
$handlerMap$0$??$?6U?$char_traits@D@std@@@std@@YAAEAV?$basic_ostream@DU?$char_traits@D@std@@@0@AEAV10@PEBD@Z DD 040H
	DD	00H
	DD	00H
	DD	imagerel ?catch$4@?0???$?6U?$char_traits@D@std@@@std@@YAAEAV?$basic_ostream@DU?$char_traits@D@std@@@0@AEAV10@PEBD@Z@4HA
	DD	038H
xdata	ENDS
;	COMDAT xdata
xdata	SEGMENT
$tryMap$??$?6U?$char_traits@D@std@@@std@@YAAEAV?$basic_ostream@DU?$char_traits@D@std@@@0@AEAV10@PEBD@Z DD 02H
	DD	02H
	DD	03H
	DD	01H
	DD	imagerel $handlerMap$0$??$?6U?$char_traits@D@std@@@std@@YAAEAV?$basic_ostream@DU?$char_traits@D@std@@@0@AEAV10@PEBD@Z
xdata	ENDS
;	COMDAT xdata
xdata	SEGMENT
$stateUnwindMap$??$?6U?$char_traits@D@std@@@std@@YAAEAV?$basic_ostream@DU?$char_traits@D@std@@@0@AEAV10@PEBD@Z DD 0ffffffffH
	DD	imagerel ?dtor$1@?0???$?6U?$char_traits@D@std@@@std@@YAAEAV?$basic_ostream@DU?$char_traits@D@std@@@0@AEAV10@PEBD@Z@4HA
	DD	0ffffffffH
	DD	imagerel ?dtor$0@?0???$?6U?$char_traits@D@std@@@std@@YAAEAV?$basic_ostream@DU?$char_traits@D@std@@@0@AEAV10@PEBD@Z@4HA
	DD	01H
	DD	00H
	DD	01H
	DD	00H
	DD	0ffffffffH
	DD	imagerel __imp___std_terminate
	DD	04H
	DD	imagerel __imp___std_terminate
xdata	ENDS
;	COMDAT CONST
CONST	SEGMENT
$cppxdata$??$?6U?$char_traits@D@std@@@std@@YAAEAV?$basic_ostream@DU?$char_traits@D@std@@@0@AEAV10@PEBD@Z DD 019930522H
	DD	06H
	DD	imagerel $stateUnwindMap$??$?6U?$char_traits@D@std@@@std@@YAAEAV?$basic_ostream@DU?$char_traits@D@std@@@0@AEAV10@PEBD@Z
	DD	01H
	DD	imagerel $tryMap$??$?6U?$char_traits@D@std@@@std@@YAAEAV?$basic_ostream@DU?$char_traits@D@std@@@0@AEAV10@PEBD@Z
	DD	08H
	DD	imagerel $ip2state$??$?6U?$char_traits@D@std@@@std@@YAAEAV?$basic_ostream@DU?$char_traits@D@std@@@0@AEAV10@PEBD@Z
	DD	020H
	DD	00H
	DD	01H
CONST	ENDS
;	COMDAT xdata
xdata	SEGMENT
$unwind$??$?6U?$char_traits@D@std@@@std@@YAAEAV?$basic_ostream@DU?$char_traits@D@std@@@0@AEAV10@PEBD@Z DD 081f19H
	DD	0f341fH
	DD	0f00d7211H
	DD	0c009e00bH
	DD	060067007H
	DD	imagerel __CxxFrameHandler3
	DD	imagerel $cppxdata$??$?6U?$char_traits@D@std@@@std@@YAAEAV?$basic_ostream@DU?$char_traits@D@std@@@0@AEAV10@PEBD@Z
xdata	ENDS
;	COMDAT xdata
xdata	SEGMENT
$unwind$??$endl@DU?$char_traits@D@std@@@std@@YAAEAV?$basic_ostream@DU?$char_traits@D@std@@@0@AEAV10@@Z DD 020601H
	DD	030023206H
xdata	ENDS
; Function compile flags: /Ogtpy
;	COMDAT ?length@?$char_traits@D@std@@SA_KQEBD@Z
_TEXT	SEGMENT
_First$ = 8
?length@?$char_traits@D@std@@SA_KQEBD@Z PROC		; std::char_traits<char>::length, COMDAT
; File c:\program files (x86)\microsoft visual studio\2017\professional\vc\tools\msvc\14.13.26128\include\iosfwd
; Line 446
	mov	rax, -1
$LL3@length:
	inc	rax
	cmp	BYTE PTR [rcx+rax], 0
	jne	SHORT $LL3@length
; Line 448
	ret	0
?length@?$char_traits@D@std@@SA_KQEBD@Z ENDP		; std::char_traits<char>::length
_TEXT	ENDS
; Function compile flags: /Ogtpy
;	COMDAT ?eq_int_type@?$char_traits@D@std@@SA_NAEBH0@Z
_TEXT	SEGMENT
_Left$ = 8
_Right$ = 16
?eq_int_type@?$char_traits@D@std@@SA_NAEBH0@Z PROC	; std::char_traits<char>::eq_int_type, COMDAT
; File c:\program files (x86)\microsoft visual studio\2017\professional\vc\tools\msvc\14.13.26128\include\iosfwd
; Line 513
	mov	eax, DWORD PTR [rdx]
	cmp	DWORD PTR [rcx], eax
	sete	al
; Line 514
	ret	0
?eq_int_type@?$char_traits@D@std@@SA_NAEBH0@Z ENDP	; std::char_traits<char>::eq_int_type
_TEXT	ENDS
; Function compile flags: /Ogtpy
;	COMDAT ?eof@?$char_traits@D@std@@SAHXZ
_TEXT	SEGMENT
?eof@?$char_traits@D@std@@SAHXZ PROC			; std::char_traits<char>::eof, COMDAT
; File c:\program files (x86)\microsoft visual studio\2017\professional\vc\tools\msvc\14.13.26128\include\iosfwd
; Line 523
	mov	eax, -1
; Line 524
	ret	0
?eof@?$char_traits@D@std@@SAHXZ ENDP			; std::char_traits<char>::eof
_TEXT	ENDS
; Function compile flags: /Ogtpy
;	COMDAT wmain
_TEXT	SEGMENT
$T1 = 32
N$ = 48
dot1$ = 56
dot$ = 56
ntimes$ = 56
__$ArrayPad$ = 64
argc$ = 160
argv$ = 168
wmain	PROC						; COMDAT
; File c:\users\przemyslaw.kleszcz\desktop\new folder (4)\memtest2\memtest_vect_vs2012\memtest_vect_vs2012.cpp
; Line 17
$LN68:
	mov	rax, rsp
	push	rdi
	sub	rsp, 144				; 00000090H
	mov	QWORD PTR [rax-112], -2
	mov	QWORD PTR [rax+8], rbx
	mov	QWORD PTR [rax+16], rsi
	movaps	XMMWORD PTR [rax-24], xmm6
	movaps	XMMWORD PTR [rax-40], xmm7
	movaps	XMMWORD PTR [rax-56], xmm8
	movaps	XMMWORD PTR [rax-72], xmm9
	mov	rax, QWORD PTR __security_cookie
	xor	rax, rsp
	mov	QWORD PTR __$ArrayPad$[rsp], rax
; Line 22
	lea	rdx, OFFSET FLAT:??_C@_0BB@JAJPAAIO@VERSION?5RELEASE?6?$AA@
	mov	rcx, QWORD PTR __imp_?cout@std@@3V?$basic_ostream@DU?$char_traits@D@std@@@1@A
	call	??$?6U?$char_traits@D@std@@@std@@YAAEAV?$basic_ostream@DU?$char_traits@D@std@@@0@AEAV10@PEBD@Z ; std::operator<<<std::char_traits<char> >
; Line 31
	lea	rdx, OFFSET FLAT:??_C@_0BC@LENDINEP@Input?3?5N?0?5ntimes?6?$AA@
	mov	rcx, QWORD PTR __imp_?cout@std@@3V?$basic_ostream@DU?$char_traits@D@std@@@1@A
	call	??$?6U?$char_traits@D@std@@@std@@YAAEAV?$basic_ostream@DU?$char_traits@D@std@@@0@AEAV10@PEBD@Z ; std::operator<<<std::char_traits<char> >
; Line 32
	lea	rdx, QWORD PTR N$[rsp]
	mov	rcx, QWORD PTR __imp_?cin@std@@3V?$basic_istream@DU?$char_traits@D@std@@@1@A
	call	QWORD PTR __imp_??5?$basic_istream@DU?$char_traits@D@std@@@std@@QEAAAEAV01@AEAH@Z
	mov	rcx, rax
	lea	rdx, QWORD PTR ntimes$[rsp]
	call	QWORD PTR __imp_??5?$basic_istream@DU?$char_traits@D@std@@@std@@QEAAAEAV01@AEAH@Z
; Line 34
	mov	eax, DWORD PTR N$[rsp]
	cdq
	and	edx, 4095				; 00000fffH
	add	eax, edx
; Line 35
	and	eax, -4096				; fffffffffffff000H
	mov	DWORD PTR N$[rsp], eax
; Line 38
	lea	rdx, OFFSET FLAT:??_C@_04MHBLBDJF@N?5?$DN?5?$AA@
	mov	rcx, QWORD PTR __imp_?cout@std@@3V?$basic_ostream@DU?$char_traits@D@std@@@1@A
	call	??$?6U?$char_traits@D@std@@@std@@YAAEAV?$basic_ostream@DU?$char_traits@D@std@@@0@AEAV10@PEBD@Z ; std::operator<<<std::char_traits<char> >
	mov	rcx, rax
	mov	edx, DWORD PTR N$[rsp]
	call	QWORD PTR __imp_??6?$basic_ostream@DU?$char_traits@D@std@@@std@@QEAAAEAV01@H@Z
	mov	rcx, rax
	lea	rdx, OFFSET FLAT:??_C@_0L@KKAOAIMC@?5ntimes?5?$DN?5?$AA@
	call	??$?6U?$char_traits@D@std@@@std@@YAAEAV?$basic_ostream@DU?$char_traits@D@std@@@0@AEAV10@PEBD@Z ; std::operator<<<std::char_traits<char> >
	mov	rcx, rax
	mov	edx, DWORD PTR ntimes$[rsp]
	call	QWORD PTR __imp_??6?$basic_ostream@DU?$char_traits@D@std@@@std@@QEAAAEAV01@H@Z
	mov	rcx, rax
	lea	rdx, OFFSET FLAT:??$endl@DU?$char_traits@D@std@@@std@@YAAEAV?$basic_ostream@DU?$char_traits@D@std@@@0@AEAV10@@Z ; std::endl<char,std::char_traits<char> >
	call	QWORD PTR __imp_??6?$basic_ostream@DU?$char_traits@D@std@@@std@@QEAAAEAV01@P6AAEAV01@AEAV01@@Z@Z
	npad	1
; Line 42
	movsxd	rcx, DWORD PTR N$[rsp]
	mov	eax, 8
	mul	rcx
	mov	rcx, -1
	cmovo	rax, rcx
	lea	edx, QWORD PTR [rcx+17]
	mov	rcx, rax
	call	QWORD PTR __imp__aligned_malloc
	mov	rsi, rax
; Line 43
	test	rax, rax
	je	$LN67@wmain
; Line 52
	xor	ebx, ebx
	cmp	DWORD PTR N$[rsp], ebx
	jle	SHORT $LN3@wmain
	mov	rdi, rsi
$LL4@wmain:
; Line 54
	inc	ebx
	movd	xmm0, ebx
	cvtdq2pd xmm0, xmm0
	call	sqrt
	movsd	QWORD PTR [rdi], xmm0
; Line 52
	lea	rdi, QWORD PTR [rdi+8]
	cmp	ebx, DWORD PTR N$[rsp]
	jl	SHORT $LL4@wmain
$LN3@wmain:
; Line 58
	call	QWORD PTR __imp_GetTickCount
	mov	ebx, eax
; Line 59
	mov	ecx, DWORD PTR ntimes$[rsp]
	test	ecx, ecx
	jle	SHORT $LN62@wmain
; Line 58
	mov	edx, ecx
	mov	r8d, DWORD PTR N$[rsp]
$LL7@wmain:
	xorps	xmm8, xmm8
; Line 62
	test	r8d, r8d
	jle	SHORT $LN5@wmain
; Line 61
	mov	rax, rsi
	mov	rcx, r8
$LL46@wmain:
; Line 64
	movsd	xmm0, QWORD PTR [rax]
	mulsd	xmm0, xmm0
	addsd	xmm8, xmm0
; Line 62
	add	rax, 8
	sub	rcx, 1
	jne	SHORT $LL46@wmain
$LN5@wmain:
; Line 59
	sub	rdx, 1
	jne	SHORT $LL7@wmain
	jmp	SHORT $LN6@wmain
$LN62@wmain:
	movsd	xmm8, QWORD PTR dot$[rsp]
$LN6@wmain:
; Line 67
	call	QWORD PTR __imp_GetTickCount
	sub	eax, ebx
	xorps	xmm6, xmm6
	cvtsi2sd xmm6, rax
; Line 69
	lea	rdx, OFFSET FLAT:??_C@_0CN@LCJCILGN@classical?5access?3?5?5?5?5?5?5?5?5?5?5?5?5?5?5?5@
	mov	rcx, QWORD PTR __imp_?cout@std@@3V?$basic_ostream@DU?$char_traits@D@std@@@1@A
	call	??$?6U?$char_traits@D@std@@@std@@YAAEAV?$basic_ostream@DU?$char_traits@D@std@@@0@AEAV10@PEBD@Z ; std::operator<<<std::char_traits<char> >
	mov	rcx, rax
	movaps	xmm1, xmm6
	call	QWORD PTR __imp_??6?$basic_ostream@DU?$char_traits@D@std@@@std@@QEAAAEAV01@N@Z
	mov	rcx, rax
	lea	rdx, OFFSET FLAT:??_C@_05JJKMFMED@?5msek?$AA@
	call	??$?6U?$char_traits@D@std@@@std@@YAAEAV?$basic_ostream@DU?$char_traits@D@std@@@0@AEAV10@PEBD@Z ; std::operator<<<std::char_traits<char> >
	mov	rcx, rax
	lea	rdx, OFFSET FLAT:??$endl@DU?$char_traits@D@std@@@std@@YAAEAV?$basic_ostream@DU?$char_traits@D@std@@@0@AEAV10@@Z ; std::endl<char,std::char_traits<char> >
	call	QWORD PTR __imp_??6?$basic_ostream@DU?$char_traits@D@std@@@std@@QEAAAEAV01@P6AAEAV01@AEAV01@@Z@Z
; Line 76
	call	QWORD PTR __imp_GetTickCount
	mov	ebx, eax
; Line 78
	mov	ecx, DWORD PTR ntimes$[rsp]
	test	ecx, ecx
	jle	$LN63@wmain
	xorps	xmm4, xmm4
; Line 67
	mov	r9d, ecx
	mov	r8d, DWORD PTR N$[rsp]
$LL13@wmain:
; Line 80
	movaps	xmm7, xmm4
; Line 82
	test	r8d, r8d
	jle	SHORT $LN15@wmain
; Line 80
	lea	rcx, QWORD PTR [rsi+16]
	lea	edx, DWORD PTR [r8-1]
	shr	edx, 3
	inc	edx
	npad	5
$LL16@wmain:
; Line 85
	prefetcht0 BYTE PTR [rcx+48]
; Line 86
	movups	xmm0, XMMWORD PTR [rcx-16]
; Line 87
	movups	xmm1, XMMWORD PTR [rcx]
; Line 88
	movups	xmm2, XMMWORD PTR [rcx+16]
; Line 89
	movups	xmm3, XMMWORD PTR [rcx+32]
; Line 92
	mulpd	xmm0, xmm0
; Line 93
	addpd	xmm0, xmm7
	movaps	xmm7, xmm0
; Line 94
	mulpd	xmm1, xmm1
; Line 95
	addpd	xmm7, xmm1
; Line 96
	mulpd	xmm2, xmm2
; Line 97
	addpd	xmm7, xmm2
; Line 98
	mulpd	xmm3, xmm3
; Line 99
	addpd	xmm7, xmm3
; Line 82
	add	rcx, 64					; 00000040H
	sub	rdx, 1
	jne	SHORT $LL16@wmain
$LN15@wmain:
; Line 102
	movaps	xmm0, xmm7
	unpckhpd xmm0, xmm7
	addsd	xmm7, xmm0
; Line 78
	sub	r9, 1
	jne	SHORT $LL13@wmain
	jmp	SHORT $LN12@wmain
$LN63@wmain:
	movsd	xmm7, QWORD PTR dot1$[rsp]
$LN12@wmain:
; Line 104
	call	QWORD PTR __imp_GetTickCount
	sub	eax, ebx
	xorps	xmm6, xmm6
	cvtsi2sd xmm6, rax
; Line 106
	lea	rdx, OFFSET FLAT:??_C@_0CN@MPGMCADC@SSE2?3?5x4?5?5prefetch?5x?58?5?5?5?$CBpipeli@
	mov	rcx, QWORD PTR __imp_?cout@std@@3V?$basic_ostream@DU?$char_traits@D@std@@@1@A
	call	??$?6U?$char_traits@D@std@@@std@@YAAEAV?$basic_ostream@DU?$char_traits@D@std@@@0@AEAV10@PEBD@Z ; std::operator<<<std::char_traits<char> >
	mov	rcx, rax
	movaps	xmm1, xmm6
	call	QWORD PTR __imp_??6?$basic_ostream@DU?$char_traits@D@std@@@std@@QEAAAEAV01@N@Z
	mov	rcx, rax
	lea	rdx, OFFSET FLAT:??_C@_05JJKMFMED@?5msek?$AA@
	call	??$?6U?$char_traits@D@std@@@std@@YAAEAV?$basic_ostream@DU?$char_traits@D@std@@@0@AEAV10@PEBD@Z ; std::operator<<<std::char_traits<char> >
	mov	rcx, rax
	lea	rdx, OFFSET FLAT:??$endl@DU?$char_traits@D@std@@@std@@YAAEAV?$basic_ostream@DU?$char_traits@D@std@@@0@AEAV10@@Z ; std::endl<char,std::char_traits<char> >
	call	QWORD PTR __imp_??6?$basic_ostream@DU?$char_traits@D@std@@@std@@QEAAAEAV01@P6AAEAV01@AEAV01@@Z@Z
; Line 108
	movaps	xmm0, xmm8
	subsd	xmm0, xmm7
	mulsd	xmm0, xmm0
	comisd	xmm0, QWORD PTR __real@3c9cd2b297d889bc
	jb	SHORT $LN25@wmain
; Line 110
	lea	rdx, OFFSET FLAT:??_C@_0O@BJHCLIGI@Error?3?5dot?5?$DN?5?$AA@
	mov	rcx, QWORD PTR __imp_?cout@std@@3V?$basic_ostream@DU?$char_traits@D@std@@@1@A
	call	??$?6U?$char_traits@D@std@@@std@@YAAEAV?$basic_ostream@DU?$char_traits@D@std@@@0@AEAV10@PEBD@Z ; std::operator<<<std::char_traits<char> >
	mov	rcx, rax
	movaps	xmm1, xmm8
	call	QWORD PTR __imp_??6?$basic_ostream@DU?$char_traits@D@std@@@std@@QEAAAEAV01@N@Z
	mov	rcx, rax
	lea	rdx, OFFSET FLAT:??_C@_09ONHBKHAJ@?5?5dot1?5?$DN?5?$AA@
	call	??$?6U?$char_traits@D@std@@@std@@YAAEAV?$basic_ostream@DU?$char_traits@D@std@@@0@AEAV10@PEBD@Z ; std::operator<<<std::char_traits<char> >
	mov	rcx, rax
	movaps	xmm1, xmm7
	call	QWORD PTR __imp_??6?$basic_ostream@DU?$char_traits@D@std@@@std@@QEAAAEAV01@N@Z
	mov	rcx, rax
	lea	rdx, OFFSET FLAT:??$endl@DU?$char_traits@D@std@@@std@@YAAEAV?$basic_ostream@DU?$char_traits@D@std@@@0@AEAV10@@Z ; std::endl<char,std::char_traits<char> >
	call	QWORD PTR __imp_??6?$basic_ostream@DU?$char_traits@D@std@@@std@@QEAAAEAV01@P6AAEAV01@AEAV01@@Z@Z
$LN25@wmain:
; Line 117
	call	QWORD PTR __imp_GetTickCount
	mov	ebx, eax
; Line 119
	mov	ecx, DWORD PTR ntimes$[rsp]
	test	ecx, ecx
	jle	$LN18@wmain
	xorps	xmm9, xmm9
; Line 117
	mov	r9d, ecx
	mov	r8d, DWORD PTR N$[rsp]
	npad	8
$LL19@wmain:
; Line 121
	movaps	xmm4, xmm9
	movaps	xmm5, xmm4
	movaps	xmm7, xmm4
	movaps	xmm6, xmm4
; Line 123
	test	r8d, r8d
	jle	SHORT $LN21@wmain
; Line 121
	lea	rcx, QWORD PTR [rsi+16]
	lea	edx, DWORD PTR [r8-1]
	shr	edx, 3
	inc	edx
	npad	1
$LL22@wmain:
; Line 126
	prefetcht0 BYTE PTR [rcx+48]
; Line 127
	movups	xmm0, XMMWORD PTR [rcx-16]
; Line 128
	movups	xmm1, XMMWORD PTR [rcx]
; Line 129
	movups	xmm2, XMMWORD PTR [rcx+16]
; Line 130
	movups	xmm3, XMMWORD PTR [rcx+32]
; Line 134
	mulpd	xmm0, xmm0
; Line 139
	addpd	xmm4, xmm0
; Line 135
	mulpd	xmm1, xmm1
; Line 140
	addpd	xmm5, xmm1
; Line 136
	mulpd	xmm2, xmm2
; Line 141
	addpd	xmm7, xmm2
; Line 137
	mulpd	xmm3, xmm3
; Line 142
	addpd	xmm6, xmm3
; Line 123
	add	rcx, 64					; 00000040H
	sub	rdx, 1
	jne	SHORT $LL22@wmain
$LN21@wmain:
; Line 145
	addpd	xmm7, xmm6
; Line 144
	addpd	xmm5, xmm4
; Line 146
	addpd	xmm7, xmm5
; Line 148
	movaps	xmm0, xmm7
	unpckhpd xmm0, xmm7
	addsd	xmm7, xmm0
; Line 119
	sub	r9, 1
	jne	SHORT $LL19@wmain
$LN18@wmain:
; Line 150
	call	QWORD PTR __imp_GetTickCount
	sub	eax, ebx
	xorps	xmm6, xmm6
	cvtsi2sd xmm6, rax
; Line 152
	lea	rdx, OFFSET FLAT:??_C@_0CN@KKALBLHE@SSE2?3?5x4?5?5prefetch?5x?58?5?5?5?5pipeli@
	mov	rcx, QWORD PTR __imp_?cout@std@@3V?$basic_ostream@DU?$char_traits@D@std@@@1@A
	call	??$?6U?$char_traits@D@std@@@std@@YAAEAV?$basic_ostream@DU?$char_traits@D@std@@@0@AEAV10@PEBD@Z ; std::operator<<<std::char_traits<char> >
	mov	rcx, rax
	movaps	xmm1, xmm6
	call	QWORD PTR __imp_??6?$basic_ostream@DU?$char_traits@D@std@@@std@@QEAAAEAV01@N@Z
	mov	rcx, rax
	lea	rdx, OFFSET FLAT:??_C@_05JJKMFMED@?5msek?$AA@
	call	??$?6U?$char_traits@D@std@@@std@@YAAEAV?$basic_ostream@DU?$char_traits@D@std@@@0@AEAV10@PEBD@Z ; std::operator<<<std::char_traits<char> >
	mov	rcx, rax
	lea	rdx, OFFSET FLAT:??$endl@DU?$char_traits@D@std@@@std@@YAAEAV?$basic_ostream@DU?$char_traits@D@std@@@0@AEAV10@@Z ; std::endl<char,std::char_traits<char> >
	call	QWORD PTR __imp_??6?$basic_ostream@DU?$char_traits@D@std@@@std@@QEAAAEAV01@P6AAEAV01@AEAV01@@Z@Z
; Line 154
	movaps	xmm0, xmm8
	subsd	xmm0, xmm7
	mulsd	xmm0, xmm0
	comisd	xmm0, QWORD PTR __real@3c9cd2b297d889bc
	jb	SHORT $LN26@wmain
; Line 156
	lea	rdx, OFFSET FLAT:??_C@_0O@BJHCLIGI@Error?3?5dot?5?$DN?5?$AA@
	mov	rcx, QWORD PTR __imp_?cout@std@@3V?$basic_ostream@DU?$char_traits@D@std@@@1@A
	call	??$?6U?$char_traits@D@std@@@std@@YAAEAV?$basic_ostream@DU?$char_traits@D@std@@@0@AEAV10@PEBD@Z ; std::operator<<<std::char_traits<char> >
	mov	rcx, rax
	movaps	xmm1, xmm8
	call	QWORD PTR __imp_??6?$basic_ostream@DU?$char_traits@D@std@@@std@@QEAAAEAV01@N@Z
	mov	rcx, rax
	lea	rdx, OFFSET FLAT:??_C@_09ONHBKHAJ@?5?5dot1?5?$DN?5?$AA@
	call	??$?6U?$char_traits@D@std@@@std@@YAAEAV?$basic_ostream@DU?$char_traits@D@std@@@0@AEAV10@PEBD@Z ; std::operator<<<std::char_traits<char> >
	mov	rcx, rax
	movaps	xmm1, xmm7
	call	QWORD PTR __imp_??6?$basic_ostream@DU?$char_traits@D@std@@@std@@QEAAAEAV01@N@Z
	mov	rcx, rax
	lea	rdx, OFFSET FLAT:??$endl@DU?$char_traits@D@std@@@std@@YAAEAV?$basic_ostream@DU?$char_traits@D@std@@@0@AEAV10@@Z ; std::endl<char,std::char_traits<char> >
	call	QWORD PTR __imp_??6?$basic_ostream@DU?$char_traits@D@std@@@std@@QEAAAEAV01@P6AAEAV01@AEAV01@@Z@Z
$LN26@wmain:
; Line 159
	mov	rcx, rsi
	call	QWORD PTR __imp__aligned_free
; Line 166
	lea	rcx, OFFSET FLAT:??_C@_05PDJBBECF@pause?$AA@
	call	QWORD PTR __imp_system
; Line 167
	xor	eax, eax
; Line 168
	mov	rcx, QWORD PTR __$ArrayPad$[rsp]
	xor	rcx, rsp
	call	__security_check_cookie
	lea	r11, QWORD PTR [rsp+144]
	mov	rbx, QWORD PTR [r11+16]
	mov	rsi, QWORD PTR [r11+24]
	movaps	xmm6, XMMWORD PTR [r11-16]
	movaps	xmm7, XMMWORD PTR [rsp+112]
	movaps	xmm8, XMMWORD PTR [r11-48]
	movaps	xmm9, XMMWORD PTR [r11-64]
	mov	rsp, r11
	pop	rdi
	ret	0
$LN67@wmain:
; Line 44
	mov	DWORD PTR $T1[rsp], 10
	lea	rdx, OFFSET FLAT:_TI1H
	lea	rcx, QWORD PTR $T1[rsp]
	call	_CxxThrowException
	int	3
$LN65@wmain:
	int	3
wmain	ENDP
_TEXT	ENDS
;	COMDAT text$x
text$x	SEGMENT
$T1 = 32
N$ = 48
dot1$ = 56
dot$ = 56
ntimes$ = 56
__$ArrayPad$ = 64
argc$ = 160
argv$ = 168
wmain$catch$0 PROC
; Line 47
	mov	QWORD PTR [rsp+16], rdx
	push	rbp
	sub	rsp, 32					; 00000020H
	mov	rbp, rdx
__catch$wmain$0:
; Line 48
	lea	rdx, OFFSET FLAT:??_C@_0BJ@OGCHFJAK@Memory?5allocation?5error?6?$AA@
	mov	rcx, QWORD PTR __imp_?cout@std@@3V?$basic_ostream@DU?$char_traits@D@std@@@1@A
	call	??$?6U?$char_traits@D@std@@@std@@YAAEAV?$basic_ostream@DU?$char_traits@D@std@@@0@AEAV10@PEBD@Z ; std::operator<<<std::char_traits<char> >
; Line 49
	mov	ecx, 1
	call	QWORD PTR __imp_exit
	npad	1
wmain$catch$0 ENDP
text$x	ENDS
; Function compile flags: /Ogtpy
;	COMDAT text$x
text$x	SEGMENT
$T1 = 32
N$ = 48
dot1$ = 56
dot$ = 56
ntimes$ = 56
__$ArrayPad$ = 64
argc$ = 160
argv$ = 168
wmain$catch$0 PROC
; Line 47
	mov	QWORD PTR [rsp+16], rdx
	push	rbp
	sub	rsp, 32					; 00000020H
	mov	rbp, rdx
__catch$wmain$0:
; Line 48
	lea	rdx, OFFSET FLAT:??_C@_0BJ@OGCHFJAK@Memory?5allocation?5error?6?$AA@
	mov	rcx, QWORD PTR __imp_?cout@std@@3V?$basic_ostream@DU?$char_traits@D@std@@@1@A
	call	??$?6U?$char_traits@D@std@@@std@@YAAEAV?$basic_ostream@DU?$char_traits@D@std@@@0@AEAV10@PEBD@Z ; std::operator<<<std::char_traits<char> >
; Line 49
	mov	ecx, 1
	call	QWORD PTR __imp_exit
	npad	1
wmain$catch$0 ENDP
text$x	ENDS
; Function compile flags: /Ogtpy
;	COMDAT ??Bsentry@?$basic_ostream@DU?$char_traits@D@std@@@std@@QEBA_NXZ
_TEXT	SEGMENT
this$ = 8
??Bsentry@?$basic_ostream@DU?$char_traits@D@std@@@std@@QEBA_NXZ PROC ; std::basic_ostream<char,std::char_traits<char> >::sentry::operator bool, COMDAT
; File c:\program files (x86)\microsoft visual studio\2017\professional\vc\tools\msvc\14.13.26128\include\ostream
; Line 140
	movzx	eax, BYTE PTR [rcx+8]
; Line 141
	ret	0
??Bsentry@?$basic_ostream@DU?$char_traits@D@std@@@std@@QEBA_NXZ ENDP ; std::basic_ostream<char,std::char_traits<char> >::sentry::operator bool
_TEXT	ENDS
; Function compile flags: /Ogtpy
;	COMDAT ??1sentry@?$basic_ostream@DU?$char_traits@D@std@@@std@@QEAA@XZ
_TEXT	SEGMENT
$T3 = 32
this$ = 64
??1sentry@?$basic_ostream@DU?$char_traits@D@std@@@std@@QEAA@XZ PROC ; std::basic_ostream<char,std::char_traits<char> >::sentry::~sentry, COMDAT
; File c:\program files (x86)\microsoft visual studio\2017\professional\vc\tools\msvc\14.13.26128\include\ostream
; Line 127
$LN14:
	push	rbx
	sub	rsp, 48					; 00000030H
	mov	QWORD PTR $T3[rsp], -2
	mov	rbx, rcx
; Line 129
	call	QWORD PTR __imp_?uncaught_exceptions@std@@YAHXZ
	npad	1
	test	eax, eax
	jne	SHORT $LN2@sentry
; Line 131
	mov	rcx, QWORD PTR [rbx]
	call	QWORD PTR __imp_?_Osfx@?$basic_ostream@DU?$char_traits@D@std@@@std@@QEAAXXZ
	npad	1
$LN2@sentry:
; Line 105
	mov	rdx, QWORD PTR [rbx]
	mov	rax, QWORD PTR [rdx]
	movsxd	rcx, DWORD PTR [rax+4]
; File c:\program files (x86)\microsoft visual studio\2017\professional\vc\tools\msvc\14.13.26128\include\ios
; Line 90
	mov	rcx, QWORD PTR [rcx+rdx+72]
; File c:\program files (x86)\microsoft visual studio\2017\professional\vc\tools\msvc\14.13.26128\include\ostream
; Line 105
	test	rcx, rcx
	je	SHORT $LN12@sentry
; Line 106
	mov	rax, QWORD PTR [rcx]
	call	QWORD PTR [rax+16]
	npad	1
$LN12@sentry:
; Line 136
	add	rsp, 48					; 00000030H
	pop	rbx
	ret	0
??1sentry@?$basic_ostream@DU?$char_traits@D@std@@@std@@QEAA@XZ ENDP ; std::basic_ostream<char,std::char_traits<char> >::sentry::~sentry
_TEXT	ENDS
; Function compile flags: /Ogtpy
;	COMDAT ??0sentry@?$basic_ostream@DU?$char_traits@D@std@@@std@@QEAA@AEAV12@@Z
_TEXT	SEGMENT
$T8 = 32
this$ = 64
_Ostr$ = 72
??0sentry@?$basic_ostream@DU?$char_traits@D@std@@@std@@QEAA@AEAV12@@Z PROC ; std::basic_ostream<char,std::char_traits<char> >::sentry::sentry, COMDAT
; File c:\program files (x86)\microsoft visual studio\2017\professional\vc\tools\msvc\14.13.26128\include\ostream
; Line 120
$LN27:
	mov	QWORD PTR [rsp+8], rcx
	push	rdi
	sub	rsp, 48					; 00000030H
	mov	QWORD PTR $T8[rsp], -2
	mov	QWORD PTR [rsp+72], rbx
	mov	rbx, rdx
	mov	rdi, rcx
; Line 97
	mov	QWORD PTR [rcx], rdx
; Line 99
	mov	rdx, QWORD PTR [rdx]
	movsxd	rax, DWORD PTR [rdx+4]
; File c:\program files (x86)\microsoft visual studio\2017\professional\vc\tools\msvc\14.13.26128\include\ios
; Line 90
	mov	rcx, QWORD PTR [rax+rbx+72]
; File c:\program files (x86)\microsoft visual studio\2017\professional\vc\tools\msvc\14.13.26128\include\ostream
; Line 99
	test	rcx, rcx
	je	SHORT $LN6@sentry
; Line 100
	mov	rax, QWORD PTR [rcx]
	call	QWORD PTR [rax+8]
	mov	rdx, QWORD PTR [rbx]
$LN6@sentry:
; Line 121
	movsxd	rcx, DWORD PTR [rdx+4]
; File c:\program files (x86)\microsoft visual studio\2017\professional\vc\tools\msvc\14.13.26128\include\xiosbase
; Line 314
	mov	rax, rdx
; Line 338
	cmp	DWORD PTR [rcx+rbx+16], 0
; File c:\program files (x86)\microsoft visual studio\2017\professional\vc\tools\msvc\14.13.26128\include\ostream
; Line 121
	jne	SHORT $LN2@sentry
; File c:\program files (x86)\microsoft visual studio\2017\professional\vc\tools\msvc\14.13.26128\include\ios
; Line 78
	mov	rcx, QWORD PTR [rcx+rbx+80]
; File c:\program files (x86)\microsoft visual studio\2017\professional\vc\tools\msvc\14.13.26128\include\ostream
; Line 121
	test	rcx, rcx
	je	SHORT $LN2@sentry
	cmp	rcx, rbx
	je	SHORT $LN2@sentry
; Line 122
	call	QWORD PTR __imp_?flush@?$basic_ostream@DU?$char_traits@D@std@@@std@@QEAAAEAV12@XZ
	mov	rax, QWORD PTR [rbx]
$LN2@sentry:
; Line 123
	movsxd	rax, DWORD PTR [rax+4]
; File c:\program files (x86)\microsoft visual studio\2017\professional\vc\tools\msvc\14.13.26128\include\xiosbase
; Line 338
	cmp	DWORD PTR [rax+rbx+16], 0
	sete	al
; File c:\program files (x86)\microsoft visual studio\2017\professional\vc\tools\msvc\14.13.26128\include\ostream
; Line 123
	mov	BYTE PTR [rdi+8], al
; Line 124
	mov	rax, rdi
	mov	rbx, QWORD PTR [rsp+72]
	add	rsp, 48					; 00000030H
	pop	rdi
	ret	0
??0sentry@?$basic_ostream@DU?$char_traits@D@std@@@std@@QEAA@AEAV12@@Z ENDP ; std::basic_ostream<char,std::char_traits<char> >::sentry::sentry
_TEXT	ENDS
;	COMDAT text$x
text$x	SEGMENT
$T8 = 32
this$ = 64
_Ostr$ = 72
?dtor$0@?0???0sentry@?$basic_ostream@DU?$char_traits@D@std@@@std@@QEAA@AEAV12@@Z@4HA PROC ; `std::basic_ostream<char,std::char_traits<char> >::sentry::sentry'::`1'::dtor$0
	mov	rcx, QWORD PTR this$[rdx]
	jmp	??1_Sentry_base@?$basic_ostream@DU?$char_traits@D@std@@@std@@QEAA@XZ ; std::basic_ostream<char,std::char_traits<char> >::_Sentry_base::~_Sentry_base
?dtor$0@?0???0sentry@?$basic_ostream@DU?$char_traits@D@std@@@std@@QEAA@AEAV12@@Z@4HA ENDP ; `std::basic_ostream<char,std::char_traits<char> >::sentry::sentry'::`1'::dtor$0
text$x	ENDS
; Function compile flags: /Ogtpy
;	COMDAT text$x
text$x	SEGMENT
$T8 = 32
this$ = 64
_Ostr$ = 72
?dtor$0@?0???0sentry@?$basic_ostream@DU?$char_traits@D@std@@@std@@QEAA@AEAV12@@Z@4HA PROC ; `std::basic_ostream<char,std::char_traits<char> >::sentry::sentry'::`1'::dtor$0
	mov	rcx, QWORD PTR this$[rdx]
	jmp	??1_Sentry_base@?$basic_ostream@DU?$char_traits@D@std@@@std@@QEAA@XZ ; std::basic_ostream<char,std::char_traits<char> >::_Sentry_base::~_Sentry_base
?dtor$0@?0???0sentry@?$basic_ostream@DU?$char_traits@D@std@@@std@@QEAA@AEAV12@@Z@4HA ENDP ; `std::basic_ostream<char,std::char_traits<char> >::sentry::sentry'::`1'::dtor$0
text$x	ENDS
; Function compile flags: /Ogtpy
;	COMDAT ??1_Sentry_base@?$basic_ostream@DU?$char_traits@D@std@@@std@@QEAA@XZ
_TEXT	SEGMENT
$T3 = 32
this$ = 64
??1_Sentry_base@?$basic_ostream@DU?$char_traits@D@std@@@std@@QEAA@XZ PROC ; std::basic_ostream<char,std::char_traits<char> >::_Sentry_base::~_Sentry_base, COMDAT
; File c:\program files (x86)\microsoft visual studio\2017\professional\vc\tools\msvc\14.13.26128\include\ostream
; Line 104
$LN9:
	sub	rsp, 56					; 00000038H
	mov	QWORD PTR $T3[rsp], -2
; Line 105
	mov	rdx, QWORD PTR [rcx]
	mov	rax, QWORD PTR [rdx]
	movsxd	rcx, DWORD PTR [rax+4]
	mov	rcx, QWORD PTR [rcx+rdx+72]
	test	rcx, rcx
	je	SHORT $LN2@Sentry_bas
; Line 106
	mov	rax, QWORD PTR [rcx]
	call	QWORD PTR [rax+16]
	npad	1
$LN2@Sentry_bas:
; Line 107
	add	rsp, 56					; 00000038H
	ret	0
??1_Sentry_base@?$basic_ostream@DU?$char_traits@D@std@@@std@@QEAA@XZ ENDP ; std::basic_ostream<char,std::char_traits<char> >::_Sentry_base::~_Sentry_base
_TEXT	ENDS
; Function compile flags: /Ogtpy
;	COMDAT ??0_Sentry_base@?$basic_ostream@DU?$char_traits@D@std@@@std@@QEAA@AEAV12@@Z
_TEXT	SEGMENT
this$ = 48
_Ostr$ = 56
??0_Sentry_base@?$basic_ostream@DU?$char_traits@D@std@@@std@@QEAA@AEAV12@@Z PROC ; std::basic_ostream<char,std::char_traits<char> >::_Sentry_base::_Sentry_base, COMDAT
; File c:\program files (x86)\microsoft visual studio\2017\professional\vc\tools\msvc\14.13.26128\include\ostream
; Line 98
$LN10:
	push	rbx
	sub	rsp, 32					; 00000020H
; Line 97
	mov	QWORD PTR [rcx], rdx
; Line 98
	mov	rbx, rcx
; Line 99
	mov	rax, QWORD PTR [rdx]
	movsxd	r8, DWORD PTR [rax+4]
	mov	rcx, QWORD PTR [r8+rdx+72]
	test	rcx, rcx
	je	SHORT $LN8@Sentry_bas
; Line 100
	mov	rax, QWORD PTR [rcx]
	call	QWORD PTR [rax+8]
$LN8@Sentry_bas:
; Line 101
	mov	rax, rbx
	add	rsp, 32					; 00000020H
	pop	rbx
	ret	0
??0_Sentry_base@?$basic_ostream@DU?$char_traits@D@std@@@std@@QEAA@AEAV12@@Z ENDP ; std::basic_ostream<char,std::char_traits<char> >::_Sentry_base::_Sentry_base
_TEXT	ENDS
; Function compile flags: /Ogtpy
;	COMDAT ??$?6U?$char_traits@D@std@@@std@@YAAEAV?$basic_ostream@DU?$char_traits@D@std@@@0@AEAV10@PEBD@Z
_TEXT	SEGMENT
$T28 = 32
_Ok$ = 40
_Ostr$ = 112
_Val$ = 120
_State$ = 128
??$?6U?$char_traits@D@std@@@std@@YAAEAV?$basic_ostream@DU?$char_traits@D@std@@@0@AEAV10@PEBD@Z PROC ; std::operator<<<std::char_traits<char> >, COMDAT
; File c:\program files (x86)\microsoft visual studio\2017\professional\vc\tools\msvc\14.13.26128\include\ostream
; Line 769
$LN109:
	mov	QWORD PTR [rsp+8], rcx
	push	rsi
	push	rdi
	push	r12
	push	r14
	push	r15
	sub	rsp, 64					; 00000040H
	mov	QWORD PTR $T28[rsp], -2
	mov	QWORD PTR [rsp+120], rbx
	mov	r15, rdx
	mov	rsi, rcx
; Line 772
	xor	ebx, ebx
	mov	DWORD PTR _State$[rsp], ebx
; File c:\program files (x86)\microsoft visual studio\2017\professional\vc\tools\msvc\14.13.26128\include\iosfwd
; Line 446
	mov	r14, -1
$LL103@operator:
	inc	r14
	cmp	BYTE PTR [rdx+r14], bl
	jne	SHORT $LL103@operator
; File c:\program files (x86)\microsoft visual studio\2017\professional\vc\tools\msvc\14.13.26128\include\ostream
; Line 774
	mov	rcx, QWORD PTR [rcx]
	movsxd	rax, DWORD PTR [rcx+4]
; File c:\program files (x86)\microsoft visual studio\2017\professional\vc\tools\msvc\14.13.26128\include\xiosbase
; Line 422
	mov	rdi, QWORD PTR [rax+rsi+40]
; File c:\program files (x86)\microsoft visual studio\2017\professional\vc\tools\msvc\14.13.26128\include\ostream
; Line 774
	test	rdi, rdi
	jle	SHORT $LN17@operator
	cmp	rdi, r14
	jle	SHORT $LN17@operator
	sub	rdi, r14
	jmp	SHORT $LN18@operator
$LN17@operator:
	xor	edi, edi
$LN18@operator:
; Line 97
	mov	r12, rsi
	mov	QWORD PTR _Ok$[rsp], rsi
; File c:\program files (x86)\microsoft visual studio\2017\professional\vc\tools\msvc\14.13.26128\include\ios
; Line 90
	mov	rdx, QWORD PTR [rax+rsi+72]
	mov	r8, rcx
; File c:\program files (x86)\microsoft visual studio\2017\professional\vc\tools\msvc\14.13.26128\include\ostream
; Line 99
	test	rdx, rdx
	je	SHORT $LN37@operator
; Line 100
	mov	rax, QWORD PTR [rdx]
	mov	rcx, rdx
	call	QWORD PTR [rax+8]
	mov	rcx, QWORD PTR [rsi]
	mov	r8, rcx
$LN37@operator:
; Line 121
	movsxd	r9, DWORD PTR [rcx+4]
; File c:\program files (x86)\microsoft visual studio\2017\professional\vc\tools\msvc\14.13.26128\include\xiosbase
; Line 314
	mov	rax, rcx
	mov	rdx, r8
; Line 338
	cmp	DWORD PTR [r9+rsi+16], 0
; File c:\program files (x86)\microsoft visual studio\2017\professional\vc\tools\msvc\14.13.26128\include\ostream
; Line 121
	jne	SHORT $LN33@operator
; File c:\program files (x86)\microsoft visual studio\2017\professional\vc\tools\msvc\14.13.26128\include\ios
; Line 78
	mov	r9, QWORD PTR [r9+rsi+80]
; File c:\program files (x86)\microsoft visual studio\2017\professional\vc\tools\msvc\14.13.26128\include\ostream
; Line 121
	test	r9, r9
	je	SHORT $LN33@operator
	cmp	r9, rsi
	je	SHORT $LN33@operator
; Line 122
	mov	rcx, r9
	call	QWORD PTR __imp_?flush@?$basic_ostream@DU?$char_traits@D@std@@@std@@QEAAAEAV12@XZ
	mov	rax, QWORD PTR [rsi]
	mov	rdx, rax
$LN33@operator:
; Line 123
	movsxd	rcx, DWORD PTR [rax+4]
; File c:\program files (x86)\microsoft visual studio\2017\professional\vc\tools\msvc\14.13.26128\include\xiosbase
; Line 314
	mov	eax, DWORD PTR [rcx+rsi+16]
; Line 338
	test	eax, eax
	sete	BYTE PTR _Ok$[rsp+8]
; File c:\program files (x86)\microsoft visual studio\2017\professional\vc\tools\msvc\14.13.26128\include\ostream
; Line 776
	test	eax, eax
; Line 778
	je	SHORT $LN8@operator
; Line 779
	mov	ebx, 4
; Line 780
	jmp	$LN22@operator
$LN8@operator:
; File c:\program files (x86)\microsoft visual studio\2017\professional\vc\tools\msvc\14.13.26128\include\xiosbase
; Line 377
	mov	eax, DWORD PTR [rcx+rsi+24]
; File c:\program files (x86)\microsoft visual studio\2017\professional\vc\tools\msvc\14.13.26128\include\ostream
; Line 783
	and	eax, 448				; 000001c0H
	cmp	eax, 64					; 00000040H
	je	SHORT $LN99@operator
	npad	6
$LL4@operator:
; Line 784
	test	rdi, rdi
	jle	SHORT $LN3@operator
; Line 785
	mov	rax, QWORD PTR [rsi]
	movsxd	rcx, DWORD PTR [rax+4]
	movzx	edx, BYTE PTR [rcx+rsi+88]
	mov	rcx, QWORD PTR [rcx+rsi+72]
	call	QWORD PTR __imp_?sputc@?$basic_streambuf@DU?$char_traits@D@std@@@std@@QEAAHD@Z
	cmp	eax, -1
	je	SHORT $LN106@operator
; Line 784
	dec	rdi
	jmp	SHORT $LL4@operator
$LN3@operator:
; Line 793
	mov	rdx, QWORD PTR [rsi]
$LN99@operator:
	movsxd	rax, DWORD PTR [rdx+4]
	mov	r8, r14
	mov	rdx, r15
	mov	rcx, QWORD PTR [rax+rsi+72]
	call	QWORD PTR __imp_?sputn@?$basic_streambuf@DU?$char_traits@D@std@@@std@@QEAA_JPEBD_J@Z
	cmp	rax, r14
	jne	SHORT $LN106@operator
$LL104@operator:
; Line 797
	test	rdi, rdi
	jle	SHORT $LN6@operator
; Line 798
	mov	rax, QWORD PTR [rsi]
	movsxd	rcx, DWORD PTR [rax+4]
	movzx	edx, BYTE PTR [rcx+rsi+88]
	mov	rcx, QWORD PTR [rcx+rsi+72]
	call	QWORD PTR __imp_?sputc@?$basic_streambuf@DU?$char_traits@D@std@@@std@@QEAAHD@Z
	cmp	eax, -1
	je	SHORT $LN106@operator
; Line 797
	dec	rdi
	jmp	SHORT $LL104@operator
$LN106@operator:
; Line 788
	mov	ebx, 4
	mov	DWORD PTR _State$[rsp], ebx
$LN6@operator:
; Line 804
	mov	rax, QWORD PTR [rsi]
	movsxd	rcx, DWORD PTR [rax+4]
; File c:\program files (x86)\microsoft visual studio\2017\professional\vc\tools\msvc\14.13.26128\include\xiosbase
; Line 428
	mov	QWORD PTR [rcx+rsi+40], 0
; File c:\program files (x86)\microsoft visual studio\2017\professional\vc\tools\msvc\14.13.26128\include\ostream
	jmp	SHORT $LN22@operator
$LN23@operator:
; File c:\program files (x86)\microsoft visual studio\2017\professional\vc\tools\msvc\14.13.26128\include\ios
	mov	rsi, QWORD PTR _Ostr$[rsp]
	mov	ebx, DWORD PTR _State$[rsp]
	mov	r12, QWORD PTR _Ok$[rsp]
$LN22@operator:
; File c:\program files (x86)\microsoft visual studio\2017\professional\vc\tools\msvc\14.13.26128\include\ostream
; Line 808
	mov	rax, QWORD PTR [rsi]
	movsxd	rcx, DWORD PTR [rax+4]
	add	rcx, rsi
	xor	r8d, r8d
	mov	edx, ebx
	call	QWORD PTR __imp_?setstate@?$basic_ios@DU?$char_traits@D@std@@@std@@QEAAXH_N@Z
	npad	1
; Line 129
	call	QWORD PTR __imp_?uncaught_exceptions@std@@YAHXZ
	test	eax, eax
	jne	SHORT $LN82@operator
; Line 131
	mov	rcx, r12
	call	QWORD PTR __imp_?_Osfx@?$basic_ostream@DU?$char_traits@D@std@@@std@@QEAAXXZ
	npad	1
$LN82@operator:
; Line 105
	mov	rax, QWORD PTR [r12]
	movsxd	rcx, DWORD PTR [rax+4]
; File c:\program files (x86)\microsoft visual studio\2017\professional\vc\tools\msvc\14.13.26128\include\ios
; Line 90
	mov	rcx, QWORD PTR [rcx+r12+72]
; File c:\program files (x86)\microsoft visual studio\2017\professional\vc\tools\msvc\14.13.26128\include\ostream
; Line 105
	test	rcx, rcx
	je	SHORT $LN86@operator
; Line 106
	mov	rax, QWORD PTR [rcx]
	call	QWORD PTR [rax+16]
	npad	1
$LN86@operator:
; Line 809
	mov	rax, rsi
; Line 810
	mov	rbx, QWORD PTR [rsp+120]
	add	rsp, 64					; 00000040H
	pop	r15
	pop	r14
	pop	r12
	pop	rdi
	pop	rsi
	ret	0
??$?6U?$char_traits@D@std@@@std@@YAAEAV?$basic_ostream@DU?$char_traits@D@std@@@0@AEAV10@PEBD@Z ENDP ; std::operator<<<std::char_traits<char> >
_TEXT	ENDS
;	COMDAT text$x
text$x	SEGMENT
$T28 = 32
_Ok$ = 40
_Ostr$ = 112
_Val$ = 120
_State$ = 128
?dtor$1@?0???$?6U?$char_traits@D@std@@@std@@YAAEAV?$basic_ostream@DU?$char_traits@D@std@@@0@AEAV10@PEBD@Z@4HA PROC ; `std::operator<<<std::char_traits<char> >'::`1'::dtor$1
	lea	rcx, QWORD PTR _Ok$[rdx]
	jmp	??1_Sentry_base@?$basic_ostream@DU?$char_traits@D@std@@@std@@QEAA@XZ ; std::basic_ostream<char,std::char_traits<char> >::_Sentry_base::~_Sentry_base
?dtor$1@?0???$?6U?$char_traits@D@std@@@std@@YAAEAV?$basic_ostream@DU?$char_traits@D@std@@@0@AEAV10@PEBD@Z@4HA ENDP ; `std::operator<<<std::char_traits<char> >'::`1'::dtor$1
$T28 = 32
_Ok$ = 40
_Ostr$ = 112
_Val$ = 120
_State$ = 128
?dtor$0@?0???$?6U?$char_traits@D@std@@@std@@YAAEAV?$basic_ostream@DU?$char_traits@D@std@@@0@AEAV10@PEBD@Z@4HA PROC ; `std::operator<<<std::char_traits<char> >'::`1'::dtor$0
	lea	rcx, QWORD PTR _Ok$[rdx]
	jmp	??1sentry@?$basic_ostream@DU?$char_traits@D@std@@@std@@QEAA@XZ ; std::basic_ostream<char,std::char_traits<char> >::sentry::~sentry
?dtor$0@?0???$?6U?$char_traits@D@std@@@std@@YAAEAV?$basic_ostream@DU?$char_traits@D@std@@@0@AEAV10@PEBD@Z@4HA ENDP ; `std::operator<<<std::char_traits<char> >'::`1'::dtor$0
$T28 = 32
_Ok$ = 40
_Ostr$ = 112
_Val$ = 120
_State$ = 128
?catch$4@?0???$?6U?$char_traits@D@std@@@std@@YAAEAV?$basic_ostream@DU?$char_traits@D@std@@@0@AEAV10@PEBD@Z@4HA PROC ; `std::operator<<<std::char_traits<char> >'::`1'::catch$4
; Line 805
	mov	QWORD PTR [rsp+16], rdx
	push	rbp
	sub	rsp, 32					; 00000020H
	mov	rbp, rdx
__catch$??$?6U?$char_traits@D@std@@@std@@YAAEAV?$basic_ostream@DU?$char_traits@D@std@@@0@AEAV10@PEBD@Z$0:
	mov	rdx, QWORD PTR _Ostr$[rbp]
	mov	rax, QWORD PTR [rdx]
	movsxd	rcx, DWORD PTR [rax+4]
	add	rcx, rdx
	mov	r8b, 1
	mov	edx, 4
	call	QWORD PTR __imp_?setstate@?$basic_ios@DU?$char_traits@D@std@@@std@@QEAAXH_N@Z
	npad	1
	lea	rax, $LN23@catch$4
	add	rsp, 32					; 00000020H
	pop	rbp
	ret	0
	int	3
?catch$4@?0???$?6U?$char_traits@D@std@@@std@@YAAEAV?$basic_ostream@DU?$char_traits@D@std@@@0@AEAV10@PEBD@Z@4HA ENDP ; `std::operator<<<std::char_traits<char> >'::`1'::catch$4
text$x	ENDS
; Function compile flags: /Ogtpy
;	COMDAT text$x
text$x	SEGMENT
$T28 = 32
_Ok$ = 40
_Ostr$ = 112
_Val$ = 120
_State$ = 128
?dtor$1@?0???$?6U?$char_traits@D@std@@@std@@YAAEAV?$basic_ostream@DU?$char_traits@D@std@@@0@AEAV10@PEBD@Z@4HA PROC ; `std::operator<<<std::char_traits<char> >'::`1'::dtor$1
	lea	rcx, QWORD PTR _Ok$[rdx]
	jmp	??1_Sentry_base@?$basic_ostream@DU?$char_traits@D@std@@@std@@QEAA@XZ ; std::basic_ostream<char,std::char_traits<char> >::_Sentry_base::~_Sentry_base
?dtor$1@?0???$?6U?$char_traits@D@std@@@std@@YAAEAV?$basic_ostream@DU?$char_traits@D@std@@@0@AEAV10@PEBD@Z@4HA ENDP ; `std::operator<<<std::char_traits<char> >'::`1'::dtor$1
text$x	ENDS
; Function compile flags: /Ogtpy
;	COMDAT text$x
text$x	SEGMENT
$T28 = 32
_Ok$ = 40
_Ostr$ = 112
_Val$ = 120
_State$ = 128
?dtor$0@?0???$?6U?$char_traits@D@std@@@std@@YAAEAV?$basic_ostream@DU?$char_traits@D@std@@@0@AEAV10@PEBD@Z@4HA PROC ; `std::operator<<<std::char_traits<char> >'::`1'::dtor$0
	lea	rcx, QWORD PTR _Ok$[rdx]
	jmp	??1sentry@?$basic_ostream@DU?$char_traits@D@std@@@std@@QEAA@XZ ; std::basic_ostream<char,std::char_traits<char> >::sentry::~sentry
?dtor$0@?0???$?6U?$char_traits@D@std@@@std@@YAAEAV?$basic_ostream@DU?$char_traits@D@std@@@0@AEAV10@PEBD@Z@4HA ENDP ; `std::operator<<<std::char_traits<char> >'::`1'::dtor$0
text$x	ENDS
; Function compile flags: /Ogtpy
;	COMDAT text$x
text$x	SEGMENT
$T28 = 32
_Ok$ = 40
_Ostr$ = 112
_Val$ = 120
_State$ = 128
?catch$4@?0???$?6U?$char_traits@D@std@@@std@@YAAEAV?$basic_ostream@DU?$char_traits@D@std@@@0@AEAV10@PEBD@Z@4HA PROC ; `std::operator<<<std::char_traits<char> >'::`1'::catch$4
; Line 805
	mov	QWORD PTR [rsp+16], rdx
	push	rbp
	sub	rsp, 32					; 00000020H
	mov	rbp, rdx
__catch$??$?6U?$char_traits@D@std@@@std@@YAAEAV?$basic_ostream@DU?$char_traits@D@std@@@0@AEAV10@PEBD@Z$0:
	mov	rdx, QWORD PTR _Ostr$[rbp]
	mov	rax, QWORD PTR [rdx]
	movsxd	rcx, DWORD PTR [rax+4]
	add	rcx, rdx
	mov	r8b, 1
	mov	edx, 4
	call	QWORD PTR __imp_?setstate@?$basic_ios@DU?$char_traits@D@std@@@std@@QEAAXH_N@Z
	npad	1
	lea	rax, $LN23@catch$4
	add	rsp, 32					; 00000020H
	pop	rbp
	ret	0
	int	3
?catch$4@?0???$?6U?$char_traits@D@std@@@std@@YAAEAV?$basic_ostream@DU?$char_traits@D@std@@@0@AEAV10@PEBD@Z@4HA ENDP ; `std::operator<<<std::char_traits<char> >'::`1'::catch$4
text$x	ENDS
; Function compile flags: /Ogtpy
;	COMDAT ??$endl@DU?$char_traits@D@std@@@std@@YAAEAV?$basic_ostream@DU?$char_traits@D@std@@@0@AEAV10@@Z
_TEXT	SEGMENT
_Ostr$ = 48
??$endl@DU?$char_traits@D@std@@@std@@YAAEAV?$basic_ostream@DU?$char_traits@D@std@@@0@AEAV10@@Z PROC ; std::endl<char,std::char_traits<char> >, COMDAT
; File c:\program files (x86)\microsoft visual studio\2017\professional\vc\tools\msvc\14.13.26128\include\ostream
; Line 980
$LN4:
	push	rbx
	sub	rsp, 32					; 00000020H
; Line 981
	mov	rax, QWORD PTR [rcx]
	mov	rbx, rcx
	mov	dl, 10
	movsxd	rcx, DWORD PTR [rax+4]
	add	rcx, rbx
	call	QWORD PTR __imp_?widen@?$basic_ios@DU?$char_traits@D@std@@@std@@QEBADD@Z
	movzx	edx, al
	mov	rcx, rbx
	call	QWORD PTR __imp_?put@?$basic_ostream@DU?$char_traits@D@std@@@std@@QEAAAEAV12@D@Z
; Line 982
	mov	rcx, rbx
	call	QWORD PTR __imp_?flush@?$basic_ostream@DU?$char_traits@D@std@@@std@@QEAAAEAV12@XZ
; Line 983
	mov	rax, rbx
; Line 984
	add	rsp, 32					; 00000020H
	pop	rbx
	ret	0
??$endl@DU?$char_traits@D@std@@@std@@YAAEAV?$basic_ostream@DU?$char_traits@D@std@@@0@AEAV10@@Z ENDP ; std::endl<char,std::char_traits<char> >
_TEXT	ENDS
END
